; Function Attrs: mustprogress nounwind uwtable
define dso_local void @_ZN4llvm7memprof16getHotColdSchemaEv(ptr dead_on_unwind noalias nonnull writable sret(%"class.llvm::SmallVector") align 8 %0) local_unnamed_addr #0 {
  %2 = alloca [4 x i64], align 8
  call void @llvm.memcpy.p0.p0.i64(ptr noundef nonnull align 8 dereferenceable(32) %2, ptr noundef nonnull align 8 dereferenceable(32) @constinit, i64 32, i1 false)
  %3 = getelementptr inbounds i8, ptr %0, i64 16
  tail call void @_ZN4llvm15SmallVectorBaseIjEC2EPvm(ptr noundef nonnull align 8 dereferenceable(16) %0, ptr noundef nonnull %3, i64 noundef 28) #16
  %4 = getelementptr inbounds i8, ptr %2, i64 32
  call void @_ZN4llvm15SmallVectorImplINS_7memprof4MetaEE6appendIPKS2_vEEvT_S7_(ptr noundef nonnull align 8 dereferenceable(16) %0, ptr noundef nonnull %2, ptr noundef nonnull %4)
  ret void
}